; Function Attrs: nounwind sspstrong uwtable
define internal fastcc i64 @gzfile_s_open(i32 noundef %0, ptr noundef %1, i64 noundef %2, ptr noundef %3) unnamed_addr #0 {
  %5 = alloca i32, align 4
  %6 = alloca %struct.new_wrap_arg_t, align 8
  %7 = icmp slt i32 %0, 1
  br i1 %7, label %8, label %rb_check_arity.exit

8:                                                ; preds = %4
  tail call void @rb_error_arity(i32 noundef %0, i32 noundef 1, i32 noundef -1) #19
  unreachable

rb_check_arity.exit:                              ; preds = %4
  %9 = load i64, ptr %1, align 8, !tbaa !6
  %10 = tail call i64 @rb_file_open_str(i64 noundef %9, ptr noundef %3) #18
  store i64 %10, ptr %1, align 8, !tbaa !6
  call void @llvm.lifetime.start.p0(i64 4, ptr nonnull %5) #18
  store i32 0, ptr %5, align 4, !tbaa !33
  call void @llvm.lifetime.start.p0(i64 24, ptr nonnull %6) #18
  store i32 %0, ptr %6, align 8, !tbaa !251
  %11 = getelementptr inbounds nuw i8, ptr %6, i64 8
  store ptr %1, ptr %11, align 8, !tbaa !253
  %12 = getelementptr inbounds nuw i8, ptr %6, i64 16
  store i64 %2, ptr %12, align 8, !tbaa !254
  %13 = ptrtoint ptr %6 to i64
  %14 = call i64 @rb_protect(ptr noundef nonnull @new_wrap, i64 noundef %13, ptr noundef nonnull %5) #18
  %15 = load i32, ptr %5, align 4, !tbaa !33
  %.not12.i = icmp eq i32 %15, 0
  br i1 %.not12.i, label %20, label %16

16:                                               ; preds = %rb_check_arity.exit
  %17 = load i64, ptr %1, align 8, !tbaa !6
  %18 = call i64 @rb_io_close(i64 noundef %17) #18
  %19 = load i32, ptr %5, align 4, !tbaa !33
  call void @rb_jump_tag(i32 noundef %19) #19
  unreachable

20:                                               ; preds = %rb_check_arity.exit
  call void @llvm.lifetime.end.p0(i64 24, ptr nonnull %6) #18
  call void @llvm.lifetime.end.p0(i64 4, ptr nonnull %5) #18
  %21 = call i32 @rb_block_given_p() #18
  %.not13.i = icmp eq i32 %21, 0
  br i1 %.not13.i, label %gzfile_wrap.exit, label %22

22:                                               ; preds = %20
  %23 = call i64 @rb_ensure(ptr noundef nonnull @rb_yield, i64 noundef %14, ptr noundef nonnull @gzfile_ensure_close, i64 noundef %14) #18
  br label %gzfile_wrap.exit

gzfile_wrap.exit:                                 ; preds = %20, %22
  %.011.i = phi i64 [ %23, %22 ], [ %14, %20 ]
  ret i64 %.011.i
}